target datalayout = "e-m:e-p270:32:32-p271:32:32-p272:64:64-i64:64-i128:128-f80:128-n8:16:32:64-S128"
target triple = "x86_64-pc-linux-gnu"

%"class.gmx::analysismodules::(anonymous namespace)::Dssp" = type { %"class.gmx::TrajectoryAnalysisModule", %"class.gmx::Selection", i8, i64, i8, i8, i8, float, i64, i64, %"class.std::__cxx11::basic_string", %"class.std::__cxx11::basic_string", %"class.gmx::analysismodules::(anonymous namespace)::SecondaryStructures", %"class.gmx::analysismodules::(anonymous namespace)::DsspStorage", %"class.gmx::AnalysisData" }
%"class.gmx::TrajectoryAnalysisModule" = type { ptr, %"class.std::unique_ptr.2" }
%"class.std::unique_ptr.2" = type { %"struct.std::__uniq_ptr_data.3" }
%"struct.std::__uniq_ptr_data.3" = type { %"class.std::__uniq_ptr_impl.4" }
%"class.std::__uniq_ptr_impl.4" = type { %"class.std::tuple.5" }
%"class.std::tuple.5" = type { %"struct.std::_Tuple_impl.6" }
%"struct.std::_Tuple_impl.6" = type { %"struct.std::_Head_base.9" }
%"struct.std::_Head_base.9" = type { ptr }
%"class.gmx::Selection" = type { ptr }
%"class.std::__cxx11::basic_string" = type { %"struct.std::__cxx11::basic_string<char>::_Alloc_hider", i64, %union.anon }
%"struct.std::__cxx11::basic_string<char>::_Alloc_hider" = type { ptr }
%union.anon = type { i64, [8 x i8] }
%"class.gmx::analysismodules::(anonymous namespace)::SecondaryStructures" = type { %"class.std::vector", %"class.std::vector.13", %"class.std::vector.13", %"class.std::__cxx11::basic_string", float, float, i8, i64, i64, i64 }
%"class.std::vector" = type { %"struct.std::_Vector_base" }
%"struct.std::_Vector_base" = type { %"struct.std::_Vector_base<gmx::analysismodules::(anonymous namespace)::SecondaryStructuresData, std::allocator<gmx::analysismodules::(anonymous namespace)::SecondaryStructuresData>>::_Vector_impl" }
%"struct.std::_Vector_base<gmx::analysismodules::(anonymous namespace)::SecondaryStructuresData, std::allocator<gmx::analysismodules::(anonymous namespace)::SecondaryStructuresData>>::_Vector_impl" = type { %"struct.std::_Vector_base<gmx::analysismodules::(anonymous namespace)::SecondaryStructuresData, std::allocator<gmx::analysismodules::(anonymous namespace)::SecondaryStructuresData>>::_Vector_impl_data" }
%"struct.std::_Vector_base<gmx::analysismodules::(anonymous namespace)::SecondaryStructuresData, std::allocator<gmx::analysismodules::(anonymous namespace)::SecondaryStructuresData>>::_Vector_impl_data" = type { ptr, ptr, ptr }
%"class.std::vector.13" = type { %"struct.std::_Vector_base.14" }
%"struct.std::_Vector_base.14" = type { %"struct.std::_Vector_base<gmx::analysismodules::(anonymous namespace)::ResInfo, std::allocator<gmx::analysismodules::(anonymous namespace)::ResInfo>>::_Vector_impl" }
%"struct.std::_Vector_base<gmx::analysismodules::(anonymous namespace)::ResInfo, std::allocator<gmx::analysismodules::(anonymous namespace)::ResInfo>>::_Vector_impl" = type { %"struct.std::_Vector_base<gmx::analysismodules::(anonymous namespace)::ResInfo, std::allocator<gmx::analysismodules::(anonymous namespace)::ResInfo>>::_Vector_impl_data" }
%"struct.std::_Vector_base<gmx::analysismodules::(anonymous namespace)::ResInfo, std::allocator<gmx::analysismodules::(anonymous namespace)::ResInfo>>::_Vector_impl_data" = type { ptr, ptr, ptr }
%"class.gmx::analysismodules::(anonymous namespace)::DsspStorage" = type { %"class.std::vector.18" }
%"class.std::vector.18" = type { %"struct.std::_Vector_base.19" }
%"struct.std::_Vector_base.19" = type { %"struct.std::_Vector_base<gmx::analysismodules::(anonymous namespace)::DsspStorageFrame, std::allocator<gmx::analysismodules::(anonymous namespace)::DsspStorageFrame>>::_Vector_impl" }
%"struct.std::_Vector_base<gmx::analysismodules::(anonymous namespace)::DsspStorageFrame, std::allocator<gmx::analysismodules::(anonymous namespace)::DsspStorageFrame>>::_Vector_impl" = type { %"struct.std::_Vector_base<gmx::analysismodules::(anonymous namespace)::DsspStorageFrame, std::allocator<gmx::analysismodules::(anonymous namespace)::DsspStorageFrame>>::_Vector_impl_data" }
%"struct.std::_Vector_base<gmx::analysismodules::(anonymous namespace)::DsspStorageFrame, std::allocator<gmx::analysismodules::(anonymous namespace)::DsspStorageFrame>>::_Vector_impl_data" = type { ptr, ptr, ptr }
%"class.gmx::AnalysisData" = type { %"class.gmx::AbstractAnalysisData", %"class.std::unique_ptr.31" }
%"class.gmx::AbstractAnalysisData" = type { ptr, %"class.std::unique_ptr.23" }
%"class.std::unique_ptr.23" = type { %"struct.std::__uniq_ptr_data.24" }
%"struct.std::__uniq_ptr_data.24" = type { %"class.std::__uniq_ptr_impl.25" }
%"class.std::__uniq_ptr_impl.25" = type { %"class.std::tuple.26" }
%"class.std::tuple.26" = type { %"struct.std::_Tuple_impl.27" }
%"struct.std::_Tuple_impl.27" = type { %"struct.std::_Head_base.30" }
%"struct.std::_Head_base.30" = type { ptr }
%"class.std::unique_ptr.31" = type { %"struct.std::__uniq_ptr_data.32" }
%"struct.std::__uniq_ptr_data.32" = type { %"class.std::__uniq_ptr_impl.33" }
%"class.std::__uniq_ptr_impl.33" = type { %"class.std::tuple.34" }
%"class.std::tuple.34" = type { %"struct.std::_Tuple_impl.35" }
%"struct.std::_Tuple_impl.35" = type { %"struct.std::_Head_base.38" }
%"struct.std::_Head_base.38" = type { ptr }
%"class.gmx::InconsistentInputError" = type { %"class.gmx::UserInputError" }
%"class.gmx::UserInputError" = type { %"class.gmx::GromacsException" }
%"class.gmx::GromacsException" = type { %"class.std::exception", %"class.std::shared_ptr" }
%"class.std::exception" = type { ptr }
%"class.std::shared_ptr" = type { %"class.std::__shared_ptr" }
%"class.std::__shared_ptr" = type { ptr, %"class.std::__shared_count" }
%"class.std::__shared_count" = type { ptr }
%"class.gmx::ExceptionInitializer" = type { %"class.std::__cxx11::basic_string", %"class.std::vector.132" }
%"class.std::vector.132" = type { %"struct.std::_Vector_base.133" }
%"struct.std::_Vector_base.133" = type { %"struct.std::_Vector_base<std::__exception_ptr::exception_ptr, std::allocator<std::__exception_ptr::exception_ptr>>::_Vector_impl" }
%"struct.std::_Vector_base<std::__exception_ptr::exception_ptr, std::allocator<std::__exception_ptr::exception_ptr>>::_Vector_impl" = type { %"struct.std::_Vector_base<std::__exception_ptr::exception_ptr, std::allocator<std::__exception_ptr::exception_ptr>>::_Vector_impl_data" }
%"struct.std::_Vector_base<std::__exception_ptr::exception_ptr, std::allocator<std::__exception_ptr::exception_ptr>>::_Vector_impl_data" = type { ptr, ptr, ptr }
%"class.gmx::ExceptionInfo" = type { %"class.gmx::internal::IExceptionInfo", %"struct.gmx::ThrowLocation" }
%"class.gmx::internal::IExceptionInfo" = type { ptr }
%"struct.gmx::ThrowLocation" = type <{ ptr, ptr, i32, [4 x i8] }>

@.str.36 = private unnamed_addr constant [41 x i8] c"Invalid cutoff value. It must be >= 0.9.\00", align 1
@__PRETTY_FUNCTION__._ZN3gmx15analysismodules12_GLOBAL__N_14Dssp15optionsFinishedEPNS_26TrajectoryAnalysisSettingsE = private unnamed_addr constant [110 x i8] c"virtual void gmx::analysismodules::(anonymous namespace)::Dssp::optionsFinished(TrajectoryAnalysisSettings *)\00", align 1
@.str.37 = private unnamed_addr constant [141 x i8] c"generated/home/dtcxzyw/WorkSpace/Projects/compilers/llvm-opt-benchmark/bench/gromacs/gromacs/src/gromacs/trajectoryanalysis/modules/dssp.cpp\00", align 1
@_ZTIN3gmx22InconsistentInputErrorE = external constant ptr
@_ZTVN3gmx8internal14IExceptionInfoE = available_externally unnamed_addr constant { [4 x ptr] } { [4 x ptr] [ptr null, ptr @_ZTIN3gmx8internal14IExceptionInfoE, ptr @_ZN3gmx8internal14IExceptionInfoD1Ev, ptr @_ZN3gmx8internal14IExceptionInfoD0Ev] }, align 8
@_ZTVN3gmx22InconsistentInputErrorE = external unnamed_addr constant { [6 x ptr] }, align 8
@_ZTVN3gmx14UserInputErrorE = linkonce_odr unnamed_addr constant { [6 x ptr] } { [6 x ptr] [ptr null, ptr @_ZTIN3gmx14UserInputErrorE, ptr @_ZN3gmx16GromacsExceptionD2Ev, ptr @_ZN3gmx14UserInputErrorD0Ev, ptr @_ZNK3gmx16GromacsException4whatEv, ptr @__cxa_pure_virtual] }, comdat, align 8

; Function Attrs: mustprogress nounwind uwtable
define linkonce_odr void @_ZN3gmx8internal14IExceptionInfoC2Ev(ptr noundef nonnull align 8 dereferenceable(8) %0) unnamed_addr #7 comdat align 2 {
  %2 = alloca ptr, align 8
  store ptr %0, ptr %2, align 8, !tbaa !550
  %3 = load ptr, ptr %2, align 8
  store ptr getelementptr inbounds inrange(-16, 16) ({ [4 x ptr] }, ptr @_ZTVN3gmx8internal14IExceptionInfoE, i32 0, i32 0, i32 2), ptr %3, align 8, !tbaa !9
  ret void
}

; Function Attrs: mustprogress uwtable
define linkonce_odr void @_ZN3gmx14UserInputErrorC2ERKNS_20ExceptionInitializerE(ptr noundef nonnull align 8 dereferenceable(24) %0, ptr noundef nonnull align 8 dereferenceable(56) %1) unnamed_addr #4 comdat align 2 {
  %3 = alloca ptr, align 8
  %4 = alloca ptr, align 8
  store ptr %0, ptr %3, align 8, !tbaa !578
  store ptr %1, ptr %4, align 8, !tbaa !537
  %5 = load ptr, ptr %3, align 8
  %6 = load ptr, ptr %4, align 8, !tbaa !537
  call void @_ZN3gmx16GromacsExceptionC2ERKNS_20ExceptionInitializerE(ptr noundef nonnull align 8 dereferenceable(24) %5, ptr noundef nonnull align 8 dereferenceable(56) %6)
  store ptr getelementptr inbounds inrange(-16, 32) ({ [6 x ptr] }, ptr @_ZTVN3gmx14UserInputErrorE, i32 0, i32 0, i32 2), ptr %5, align 8, !tbaa !9
  ret void
}

; Function Attrs: mustprogress nounwind uwtable
define linkonce_odr void @_ZN3gmx13ExceptionInfoINS_22ExceptionInfoLocation_ENS_13ThrowLocationEEC2ERKS2_(ptr noundef nonnull align 8 dereferenceable(32) %0, ptr noundef nonnull align 8 dereferenceable(20) %1) unnamed_addr #7 comdat align 2 {
  %3 = alloca ptr, align 8
  %4 = alloca ptr, align 8
  store ptr %0, ptr %3, align 8, !tbaa !535
  store ptr %1, ptr %4, align 8, !tbaa !539
  %5 = load ptr, ptr %3, align 8
  call void @_ZN3gmx8internal14IExceptionInfoC2Ev(ptr noundef nonnull align 8 dereferenceable(8) %5) #3
  store ptr getelementptr inbounds inrange(-16, 16) ({ [4 x ptr] }, ptr @_ZTVN3gmx13ExceptionInfoINS_22ExceptionInfoLocation_ENS_13ThrowLocationEEE, i32 0, i32 0, i32 2), ptr %5, align 8, !tbaa !9
  %6 = getelementptr inbounds nuw %"class.gmx::ExceptionInfo", ptr %5, i32 0, i32 1
  %7 = load ptr, ptr %4, align 8, !tbaa !539
  call void @llvm.memcpy.p0.p0.i64(ptr align 8 %6, ptr align 8 %7, i64 24, i1 false), !tbaa.struct !545
  ret void
}

; Function Attrs: mustprogress nounwind uwtable
define linkonce_odr void @_ZN3gmx13ThrowLocationC2EPKcS2_i(ptr noundef nonnull align 8 dereferenceable(20) %0, ptr noundef %1, ptr noundef %2, i32 noundef %3) unnamed_addr #7 comdat align 2 {
  %5 = alloca ptr, align 8
  %6 = alloca ptr, align 8
  %7 = alloca ptr, align 8
  %8 = alloca i32, align 4
  store ptr %0, ptr %5, align 8, !tbaa !539
  store ptr %1, ptr %6, align 8, !tbaa !80
  store ptr %2, ptr %7, align 8, !tbaa !80
  store i32 %3, ptr %8, align 4, !tbaa !111
  %9 = load ptr, ptr %5, align 8
  %10 = getelementptr inbounds nuw %"struct.gmx::ThrowLocation", ptr %9, i32 0, i32 0
  %11 = load ptr, ptr %6, align 8, !tbaa !80
  store ptr %11, ptr %10, align 8, !tbaa !541
  %12 = getelementptr inbounds nuw %"struct.gmx::ThrowLocation", ptr %9, i32 0, i32 1
  %13 = load ptr, ptr %7, align 8, !tbaa !80
  store ptr %13, ptr %12, align 8, !tbaa !543
  %14 = getelementptr inbounds nuw %"struct.gmx::ThrowLocation", ptr %9, i32 0, i32 2
  %15 = load i32, ptr %8, align 4, !tbaa !111
  store i32 %15, ptr %14, align 8, !tbaa !544
  ret void
}

; Function Attrs: mustprogress uwtable
define linkonce_odr void @_ZN3gmx22InconsistentInputErrorC2ERKNS_20ExceptionInitializerE(ptr noundef nonnull align 8 dereferenceable(24) %0, ptr noundef nonnull align 8 dereferenceable(56) %1) unnamed_addr #4 comdat align 2 {
  %3 = alloca ptr, align 8
  %4 = alloca ptr, align 8
  store ptr %0, ptr %3, align 8, !tbaa !533
  store ptr %1, ptr %4, align 8, !tbaa !537
  %5 = load ptr, ptr %3, align 8
  %6 = load ptr, ptr %4, align 8, !tbaa !537
  call void @_ZN3gmx14UserInputErrorC2ERKNS_20ExceptionInitializerE(ptr noundef nonnull align 8 dereferenceable(24) %5, ptr noundef nonnull align 8 dereferenceable(56) %6)
  store ptr getelementptr inbounds inrange(-16, 32) ({ [6 x ptr] }, ptr @_ZTVN3gmx22InconsistentInputErrorE, i32 0, i32 0, i32 2), ptr %5, align 8, !tbaa !9
  ret void
}

; Function Attrs: mustprogress uwtable
define internal void @_ZN3gmx15analysismodules12_GLOBAL__N_14Dssp15optionsFinishedEPNS_26TrajectoryAnalysisSettingsE(ptr noundef nonnull align 8 dereferenceable(320) %0, ptr noundef %1) unnamed_addr #4 align 2 personality ptr @__gxx_personality_v0 {
  %3 = alloca ptr, align 8
  %4 = alloca ptr, align 8
  %5 = alloca %"class.gmx::InconsistentInputError", align 8
  %6 = alloca %"class.gmx::ExceptionInitializer", align 8
  %7 = alloca ptr, align 8
  %8 = alloca i32, align 4
  %9 = alloca %"class.gmx::ExceptionInfo", align 8
  %10 = alloca %"struct.gmx::ThrowLocation", align 8
  %11 = alloca i1, align 1
  store ptr %0, ptr %3, align 8, !tbaa !4
  store ptr %1, ptr %4, align 8, !tbaa !95
  %12 = load ptr, ptr %3, align 8
  %13 = getelementptr inbounds nuw %"class.gmx::analysismodules::(anonymous namespace)::Dssp", ptr %12, i32 0, i32 7
  %14 = load float, ptr %13, align 4, !tbaa !66
  %15 = fcmp olt float %14, 0x3FECCCCCC0000000
  br i1 %15, label %16, label %45

16:                                               ; preds = %2
  store i1 true, ptr %11, align 1
  %17 = call ptr @__cxa_allocate_exception(i64 24) #3
  call void @llvm.lifetime.start.p0(i64 56, ptr %6) #3
  invoke void @_ZN3gmx20ExceptionInitializerC2EPKc(ptr noundef nonnull align 8 dereferenceable(56) %6, ptr noundef @.str.36)
          to label %18 unwind label %23

18:                                               ; preds = %16
  invoke void @_ZN3gmx22InconsistentInputErrorC2ERKNS_20ExceptionInitializerE(ptr noundef nonnull align 8 dereferenceable(24) %5, ptr noundef nonnull align 8 dereferenceable(56) %6)
          to label %19 unwind label %27

19:                                               ; preds = %18
  call void @llvm.lifetime.start.p0(i64 32, ptr %9) #3
  call void @llvm.lifetime.start.p0(i64 24, ptr %10) #3
  invoke void @_ZN3gmx13ThrowLocationC2EPKcS2_i(ptr noundef nonnull align 8 dereferenceable(20) %10, ptr noundef @__PRETTY_FUNCTION__._ZN3gmx15analysismodules12_GLOBAL__N_14Dssp15optionsFinishedEPNS_26TrajectoryAnalysisSettingsE, ptr noundef @.str.37, i32 noundef 1647)
          to label %20 unwind label %31

20:                                               ; preds = %19
  invoke void @_ZN3gmx13ExceptionInfoINS_22ExceptionInfoLocation_ENS_13ThrowLocationEEC2ERKS2_(ptr noundef nonnull align 8 dereferenceable(32) %9, ptr noundef nonnull align 8 dereferenceable(20) %10)
          to label %21 unwind label %31

21:                                               ; preds = %20
  invoke void @_ZN3gmxlsINS_22InconsistentInputErrorENS_22ExceptionInfoLocation_ENS_13ThrowLocationEEENSt9enable_ifIXsr3stdE12is_base_of_vINS_16GromacsExceptionET_EES6_E4typeES6_RKNS_13ExceptionInfoIT0_T1_EE(ptr dead_on_unwind writable sret(%"class.gmx::InconsistentInputError") align 8 %17, ptr noundef %5, ptr noundef nonnull align 8 dereferenceable(32) %9)
          to label %22 unwind label %35

22:                                               ; preds = %21
  store i1 false, ptr %11, align 1
  invoke void @__cxa_throw(ptr %17, ptr @_ZTIN3gmx22InconsistentInputErrorE, ptr @_ZN3gmx16GromacsExceptionD2Ev) #26
          to label %51 unwind label %35

23:                                               ; preds = %16
  %24 = landingpad { ptr, i32 }
          cleanup
  %25 = extractvalue { ptr, i32 } %24, 0
  store ptr %25, ptr %7, align 8
  %26 = extractvalue { ptr, i32 } %24, 1
  store i32 %26, ptr %8, align 4
  br label %41

27:                                               ; preds = %18
  %28 = landingpad { ptr, i32 }
          cleanup
  %29 = extractvalue { ptr, i32 } %28, 0
  store ptr %29, ptr %7, align 8
  %30 = extractvalue { ptr, i32 } %28, 1
  store i32 %30, ptr %8, align 4
  br label %40

31:                                               ; preds = %20, %19
  %32 = landingpad { ptr, i32 }
          cleanup
  %33 = extractvalue { ptr, i32 } %32, 0
  store ptr %33, ptr %7, align 8
  %34 = extractvalue { ptr, i32 } %32, 1
  store i32 %34, ptr %8, align 4
  br label %39

35:                                               ; preds = %22, %21
  %36 = landingpad { ptr, i32 }
          cleanup
  %37 = extractvalue { ptr, i32 } %36, 0
  store ptr %37, ptr %7, align 8
  %38 = extractvalue { ptr, i32 } %36, 1
  store i32 %38, ptr %8, align 4
  call void @_ZN3gmx8internal14IExceptionInfoD2Ev(ptr noundef nonnull align 8 dereferenceable(32) %9) #3
  br label %39

39:                                               ; preds = %35, %31
  call void @llvm.lifetime.end.p0(i64 24, ptr %10) #3
  call void @llvm.lifetime.end.p0(i64 32, ptr %9) #3
  call void @_ZN3gmx16GromacsExceptionD2Ev(ptr noundef nonnull align 8 dereferenceable(24) %5) #3
  br label %40

40:                                               ; preds = %39, %27
  call void @_ZN3gmx20ExceptionInitializerD2Ev(ptr noundef nonnull align 8 dereferenceable(56) %6) #3
  br label %41

41:                                               ; preds = %40, %23
  call void @llvm.lifetime.end.p0(i64 56, ptr %6) #3
  %42 = load i1, ptr %11, align 1
  br i1 %42, label %43, label %44

43:                                               ; preds = %41
  call void @__cxa_free_exception(ptr %17) #3
  br label %44

44:                                               ; preds = %43, %41
  br label %46

45:                                               ; preds = %2
  ret void

46:                                               ; preds = %44
  %47 = load ptr, ptr %7, align 8
  %48 = load i32, ptr %8, align 4
  %49 = insertvalue { ptr, i32 } poison, ptr %47, 0
  %50 = insertvalue { ptr, i32 } %49, i32 %48, 1
  resume { ptr, i32 } %50

51:                                               ; preds = %22
  unreachable
}