; Function Attrs: mustprogress uwtable
define internal void @_ZN3gmx15analysismodules12_GLOBAL__N_14Dssp15optionsFinishedEPNS_26TrajectoryAnalysisSettingsE(ptr noundef nonnull readonly align 8 captures(none) dereferenceable(320) %0, ptr readnone captures(none) %1) unnamed_addr #3 align 2 personality ptr @__gxx_personality_v0 {
  %3 = alloca %"class.gmx::InconsistentInputError", align 8
  %4 = alloca %"class.gmx::ExceptionInitializer", align 8
  %5 = alloca %"class.gmx::ExceptionInfo", align 8
  %6 = getelementptr inbounds nuw i8, ptr %0, i64 44
  %7 = load float, ptr %6, align 4, !tbaa !65
  %8 = fcmp olt float %7, 0x3FECCCCCC0000000
  br i1 %8, label %9, label %20

9:                                                ; preds = %2
  %10 = tail call ptr @__cxa_allocate_exception(i64 24) #31
  call void @llvm.lifetime.start.p0(i64 56, ptr nonnull %4) #31
  invoke void @_ZN3gmx20ExceptionInitializerC2EPKc(ptr noundef nonnull align 8 dereferenceable(56) %4, ptr noundef nonnull @.str.36)
          to label %11 unwind label %.thread

11:                                               ; preds = %9
  invoke void @_ZN3gmx16GromacsExceptionC2ERKNS_20ExceptionInitializerE(ptr noundef nonnull align 8 dereferenceable(24) %3, ptr noundef nonnull align 8 dereferenceable(56) %4)
          to label %12 unwind label %.thread13

12:                                               ; preds = %11
  store ptr getelementptr inbounds nuw inrange(-16, 32) (i8, ptr @_ZTVN3gmx22InconsistentInputErrorE, i64 16), ptr %3, align 8, !tbaa !4
  call void @llvm.lifetime.start.p0(i64 32, ptr nonnull %5) #31
  store ptr getelementptr inbounds nuw inrange(-16, 16) (i8, ptr @_ZTVN3gmx13ExceptionInfoINS_22ExceptionInfoLocation_ENS_13ThrowLocationEEE, i64 16), ptr %5, align 8, !tbaa !4
  %13 = getelementptr inbounds nuw i8, ptr %5, i64 8
  store ptr @__PRETTY_FUNCTION__._ZN3gmx15analysismodules12_GLOBAL__N_14Dssp15optionsFinishedEPNS_26TrajectoryAnalysisSettingsE, ptr %13, align 8, !tbaa !160
  %.sroa.4.0..sroa_idx = getelementptr inbounds nuw i8, ptr %5, i64 16
  store ptr @.str.37, ptr %.sroa.4.0..sroa_idx, align 8, !tbaa !160
  %.sroa.5.0..sroa_idx = getelementptr inbounds nuw i8, ptr %5, i64 24
  store i32 1647, ptr %.sroa.5.0..sroa_idx, align 8, !tbaa !161
  invoke void @_ZN3gmxlsINS_22InconsistentInputErrorENS_22ExceptionInfoLocation_ENS_13ThrowLocationEEENSt9enable_ifIXsr3stdE12is_base_of_vINS_16GromacsExceptionET_EES6_E4typeES6_RKNS_13ExceptionInfoIT0_T1_EE(ptr dead_on_unwind writable sret(%"class.gmx::InconsistentInputError") align 8 %10, ptr noundef nonnull %3, ptr noundef nonnull align 8 dereferenceable(32) %5)
          to label %14 unwind label %17

14:                                               ; preds = %12
  invoke void @__cxa_throw(ptr %10, ptr nonnull @_ZTIN3gmx22InconsistentInputErrorE, ptr nonnull @_ZN3gmx16GromacsExceptionD2Ev) #33
          to label %22 unwind label %17

.thread:                                          ; preds = %9
  %15 = landingpad { ptr, i32 }
          cleanup
  br label %.sink.split

.thread13:                                        ; preds = %11
  %16 = landingpad { ptr, i32 }
          cleanup
  call void @_ZN3gmx20ExceptionInitializerD2Ev(ptr noundef nonnull align 8 dereferenceable(56) %4) #31
  br label %.sink.split

17:                                               ; preds = %12, %14
  %.0 = phi i1 [ false, %14 ], [ true, %12 ]
  %18 = landingpad { ptr, i32 }
          cleanup
  call void @_ZN3gmx8internal14IExceptionInfoD2Ev(ptr noundef nonnull align 8 dereferenceable(32) %5) #31
  call void @llvm.lifetime.end.p0(i64 32, ptr nonnull %5) #31
  call void @_ZN3gmx16GromacsExceptionD2Ev(ptr noundef nonnull align 8 dereferenceable(24) %3) #31
  call void @_ZN3gmx20ExceptionInitializerD2Ev(ptr noundef nonnull align 8 dereferenceable(56) %4) #31
  call void @llvm.lifetime.end.p0(i64 56, ptr nonnull %4) #31
  br i1 %.0, label %19, label %21

.sink.split:                                      ; preds = %.thread, %.thread13
  %.pn.pn12.ph = phi { ptr, i32 } [ %16, %.thread13 ], [ %15, %.thread ]
  call void @llvm.lifetime.end.p0(i64 56, ptr nonnull %4) #31
  br label %19

19:                                               ; preds = %.sink.split, %17
  %.pn.pn12 = phi { ptr, i32 } [ %18, %17 ], [ %.pn.pn12.ph, %.sink.split ]
  call void @__cxa_free_exception(ptr %10) #31
  br label %21

20:                                               ; preds = %2
  ret void

21:                                               ; preds = %17, %19
  %.pn.pn11 = phi { ptr, i32 } [ %18, %17 ], [ %.pn.pn12, %19 ]
  resume { ptr, i32 } %.pn.pn11

22:                                               ; preds = %14
  unreachable
}